; Function Attrs: mustprogress nounwind sspstrong willreturn uwtable
define hidden range(i32 0, 2) i32 @FLAC__bitwriter_write_raw_int32(ptr noundef %bw, i32 noundef %val, i32 noundef %bits) local_unnamed_addr #2 {
entry:
  %cmp = icmp ult i32 %bits, 32
  %shl = shl nsw i32 -1, %bits
  %not = xor i32 %shl, -1
  %and = select i1 %cmp, i32 %not, i32 -1
  %val.addr.0 = and i32 %and, %val
  %call = tail call fastcc i32 @FLAC__bitwriter_write_raw_uint32_nocheck(ptr noundef %bw, i32 noundef %val.addr.0, i32 noundef %bits)
  ret i32 %call
}